target datalayout = "e-m:e-p270:32:32-p271:32:32-p272:64:64-i64:64-i128:128-f80:128-n8:16:32:64-S128"
target triple = "x86_64-unknown-linux-gnu"

%"class.std::__cxx11::basic_string" = type { %"struct.std::__cxx11::basic_string<char>::_Alloc_hider", i64, %union.anon.15 }
%"struct.std::__cxx11::basic_string<char>::_Alloc_hider" = type { ptr }
%union.anon.15 = type { i64, [8 x i8] }
%"class.OpenImageIO_v2_6_0::Filesystem::IOProxy" = type { ptr, %"class.std::__cxx11::basic_string", i64, i32, %"class.std::__cxx11::basic_string" }

; Function Attrs: mustprogress nounwind uwtable
define hidden noundef zeroext i1 @_ZN18OpenImageIO_v2_6_08DDSInput18validate_signatureEj(i32 noundef %signature) #4 align 2 {
entry:
  %signature.addr = alloca i32, align 4
  store i32 %signature, ptr %signature.addr, align 4
  %0 = load i32, ptr %signature.addr, align 4
  %cmp = icmp eq i32 %0, 542327876
  ret i1 %cmp
}

; Function Attrs: mustprogress nounwind uwtable
define linkonce_odr noundef i32 @_ZNK18OpenImageIO_v2_6_010Filesystem7IOProxy4modeEv(ptr noundef nonnull align 8 dereferenceable(88) %this) #4 comdat align 2 {
entry:
  %this.addr = alloca ptr, align 8
  store ptr %this, ptr %this.addr, align 8
  %this1 = load ptr, ptr %this.addr, align 8
  %m_mode = getelementptr inbounds %"class.OpenImageIO_v2_6_0::Filesystem::IOProxy", ptr %this1, i32 0, i32 3
  %0 = load i32, ptr %m_mode, align 8
  ret i32 %0
}

; Function Attrs: mustprogress uwtable
define hidden noundef zeroext i1 @_ZNK18OpenImageIO_v2_6_08DDSInput10valid_fileEPNS_10Filesystem7IOProxyE(ptr noundef nonnull align 8 dereferenceable(448) %this, ptr noundef %ioproxy) unnamed_addr #6 align 2 {
entry:
  %retval = alloca i1, align 1
  %this.addr = alloca ptr, align 8
  %ioproxy.addr = alloca ptr, align 8
  %magic = alloca i32, align 4
  %numRead = alloca i64, align 8
  store ptr %this, ptr %this.addr, align 8
  store ptr %ioproxy, ptr %ioproxy.addr, align 8
  %0 = load ptr, ptr %ioproxy.addr, align 8
  %tobool = icmp ne ptr %0, null
  br i1 %tobool, label %lor.lhs.false, label %if.then

lor.lhs.false:                                    ; preds = %entry
  %1 = load ptr, ptr %ioproxy.addr, align 8
  %call = call noundef i32 @_ZNK18OpenImageIO_v2_6_010Filesystem7IOProxy4modeEv(ptr noundef nonnull align 8 dereferenceable(88) %1)
  %cmp = icmp ne i32 %call, 114
  br i1 %cmp, label %if.then, label %if.end

if.then:                                          ; preds = %lor.lhs.false, %entry
  store i1 false, ptr %retval, align 1
  br label %return

if.end:                                           ; preds = %lor.lhs.false
  store i32 0, ptr %magic, align 4
  %2 = load ptr, ptr %ioproxy.addr, align 8
  %vtable = load ptr, ptr %2, align 8
  %vfn = getelementptr inbounds ptr, ptr %vtable, i64 9
  %3 = load ptr, ptr %vfn, align 8
  %call2 = call noundef i64 %3(ptr noundef nonnull align 8 dereferenceable(88) %2, ptr noundef %magic, i64 noundef 4, i64 noundef 0)
  store i64 %call2, ptr %numRead, align 8
  %4 = load i64, ptr %numRead, align 8
  %cmp3 = icmp eq i64 %4, 4
  br i1 %cmp3, label %land.rhs, label %land.end

land.rhs:                                         ; preds = %if.end
  %5 = load i32, ptr %magic, align 4
  %call4 = call noundef zeroext i1 @_ZN18OpenImageIO_v2_6_08DDSInput18validate_signatureEj(i32 noundef %5)
  br label %land.end

land.end:                                         ; preds = %land.rhs, %if.end
  %6 = phi i1 [ false, %if.end ], [ %call4, %land.rhs ]
  store i1 %6, ptr %retval, align 1
  br label %return

return:                                           ; preds = %land.end, %if.then
  %7 = load i1, ptr %retval, align 1
  ret i1 %7
}